V@charset "UTF-8";\u000a\u000a[ng\u005c:cloak], [ng-cloak], [data-ng-cloak], [x-ng-cloak],\u000a.ng-cloak, .x-ng-cloak {\u000a  display: none;\u000a}\u000a\u000ang\u005c:form {\u000a  display: block;\u000a}\u000a
p1
.